; Function Attrs: nounwind uwtable
define internal void @cf_haproxy_adjust_pollset(ptr noundef %0, ptr noundef %1, ptr noundef %2) #0 {
  %4 = getelementptr inbounds nuw i8, ptr %0, i64 8
  %5 = load ptr, ptr %4, align 8, !tbaa !87
  %6 = getelementptr inbounds nuw i8, ptr %5, i64 36
  %7 = load i8, ptr %6, align 4
  %8 = and i8 %7, 1
  %.not = icmp eq i8 %8, 0
  br i1 %.not, label %15, label %9

9:                                                ; preds = %3
  %10 = getelementptr inbounds nuw i8, ptr %0, i64 36
  %11 = load i8, ptr %10, align 4
  %12 = and i8 %11, 1
  %.not6 = icmp eq i8 %12, 0
  br i1 %.not6, label %13, label %15

13:                                               ; preds = %9
  %14 = tail call i32 @Curl_conn_cf_get_socket(ptr noundef nonnull %0, ptr noundef %1) #3
  tail call void @Curl_pollset_change(ptr noundef %1, ptr noundef %2, i32 noundef %14, i32 noundef 2, i32 noundef 1) #3
  br label %15

15:                                               ; preds = %13, %9, %3
  ret void
}